target datalayout = "e-m:e-p270:32:32-p271:32:32-p272:64:64-i64:64-i128:128-f80:128-n8:16:32:64-S128"
target triple = "x86_64-pc-linux-gnu"

%struct.EnumStruct = type <{ i64, i8 }>

@.str.13 = private unnamed_addr constant [4 x i8] c"e1=\00", align 1
@.str.14 = private unnamed_addr constant [2 x i8] c"A\00", align 1
@.str.15 = private unnamed_addr constant [2 x i8] c"B\00", align 1
@.str.16 = private unnamed_addr constant [5 x i8] c",e2=\00", align 1
@.str.17 = private unnamed_addr constant [2 x i8] c"X\00", align 1
@.str.18 = private unnamed_addr constant [2 x i8] c"Y\00", align 1

; Function Attrs: mustprogress uwtable
define hidden noundef nonnull align 8 dereferenceable(8) ptr @_ZlsRSoRK10EnumStruct(ptr noundef nonnull align 8 dereferenceable(8) %0, ptr noundef nonnull align 1 dereferenceable(9) %1) #1 {
  %3 = alloca ptr, align 8
  %4 = alloca ptr, align 8
  store ptr %0, ptr %3, align 8
  store ptr %1, ptr %4, align 8
  %5 = load ptr, ptr %3, align 8
  %6 = call noundef nonnull align 8 dereferenceable(8) ptr @_ZStlsISt11char_traitsIcEERSt13basic_ostreamIcT_ES5_PKc(ptr noundef nonnull align 8 dereferenceable(8) %5, ptr noundef @.str.13)
  %7 = load ptr, ptr %4, align 8
  %8 = getelementptr inbounds %struct.EnumStruct, ptr %7, i32 0, i32 0
  %9 = load i64, ptr %8, align 1
  %10 = icmp eq i64 %9, -1
  br i1 %10, label %11, label %12

11:                                               ; preds = %2
  br label %13

12:                                               ; preds = %2
  br label %13

13:                                               ; preds = %12, %11
  %14 = phi ptr [ @.str.14, %11 ], [ @.str.15, %12 ]
  %15 = getelementptr inbounds [2 x i8], ptr %14, i64 0, i64 0
  %16 = call noundef nonnull align 8 dereferenceable(8) ptr @_ZStlsISt11char_traitsIcEERSt13basic_ostreamIcT_ES5_PKc(ptr noundef nonnull align 8 dereferenceable(8) %6, ptr noundef %15)
  %17 = call noundef nonnull align 8 dereferenceable(8) ptr @_ZStlsISt11char_traitsIcEERSt13basic_ostreamIcT_ES5_PKc(ptr noundef nonnull align 8 dereferenceable(8) %16, ptr noundef @.str.16)
  %18 = load ptr, ptr %4, align 8
  %19 = getelementptr inbounds %struct.EnumStruct, ptr %18, i32 0, i32 1
  %20 = load i8, ptr %19, align 1
  %21 = zext i8 %20 to i32
  %22 = icmp eq i32 %21, 1
  br i1 %22, label %23, label %24

23:                                               ; preds = %13
  br label %25

24:                                               ; preds = %13
  br label %25

25:                                               ; preds = %24, %23
  %26 = phi ptr [ @.str.17, %23 ], [ @.str.18, %24 ]
  %27 = getelementptr inbounds [2 x i8], ptr %26, i64 0, i64 0
  %28 = call noundef nonnull align 8 dereferenceable(8) ptr @_ZStlsISt11char_traitsIcEERSt13basic_ostreamIcT_ES5_PKc(ptr noundef nonnull align 8 dereferenceable(8) %17, ptr noundef %27)
  ret ptr %28
}